; Function Attrs: mustprogress uwtable
define noundef double @_ZNK8QuantLib19SpreadFittingMethod16discountFunctionERKNS_5ArrayEd(ptr noundef nonnull align 8 dereferenceable(216) %this, ptr noundef nonnull align 8 dereferenceable(16) %x, double noundef %t) unnamed_addr #3 align 2 {
entry:
  %method_ = getelementptr inbounds nuw i8, ptr %this, i64 176
  %0 = load ptr, ptr %method_, align 8, !tbaa !84
  %cmp.not.i = icmp eq ptr %0, null
  br i1 %cmp.not.i, label %cond.false.i, label %_ZNK5boost10shared_ptrIN8QuantLib23FittedBondDiscountCurve13FittingMethodEEptEv.exit, !prof !74

cond.false.i:                                     ; preds = %entry
  tail call void @_ZN5boost16assertion_failedEPKcS1_S1_l(ptr noundef nonnull @.str.13, ptr noundef nonnull @__PRETTY_FUNCTION__._ZNK5boost10shared_ptrIN8QuantLib23FittedBondDiscountCurve13FittingMethodEEptEv, ptr noundef nonnull @.str.14, i64 noundef 784)
  %.pre.i = load ptr, ptr %method_, align 8, !tbaa !84
  br label %_ZNK5boost10shared_ptrIN8QuantLib23FittedBondDiscountCurve13FittingMethodEEptEv.exit

_ZNK5boost10shared_ptrIN8QuantLib23FittedBondDiscountCurve13FittingMethodEEptEv.exit: ; preds = %entry, %cond.false.i
  %1 = phi ptr [ %0, %entry ], [ %.pre.i, %cond.false.i ]
  %call2 = tail call noundef double @_ZNK8QuantLib23FittedBondDiscountCurve13FittingMethod8discountERKNS_5ArrayEd(ptr noundef nonnull align 8 dereferenceable(176) %1, ptr noundef nonnull align 8 dereferenceable(16) %x, double noundef %t)
  %discountingCurve_ = getelementptr inbounds nuw i8, ptr %this, i64 200
  %call3 = tail call noundef nonnull align 8 dereferenceable(16) ptr @_ZNK8QuantLib6HandleINS_18YieldTermStructureEEptEv(ptr noundef nonnull align 8 dereferenceable(16) %discountingCurve_)
  %2 = load ptr, ptr %call3, align 8, !tbaa !97
  %cmp.not.i2 = icmp eq ptr %2, null
  br i1 %cmp.not.i2, label %cond.false.i3, label %_ZNK5boost10shared_ptrIN8QuantLib18YieldTermStructureEEptEv.exit, !prof !74

cond.false.i3:                                    ; preds = %_ZNK5boost10shared_ptrIN8QuantLib23FittedBondDiscountCurve13FittingMethodEEptEv.exit
  tail call void @_ZN5boost16assertion_failedEPKcS1_S1_l(ptr noundef nonnull @.str.13, ptr noundef nonnull @__PRETTY_FUNCTION__._ZNK5boost10shared_ptrIN8QuantLib18YieldTermStructureEEptEv, ptr noundef nonnull @.str.14, i64 noundef 784)
  %.pre.i4 = load ptr, ptr %call3, align 8, !tbaa !97
  br label %_ZNK5boost10shared_ptrIN8QuantLib18YieldTermStructureEEptEv.exit

_ZNK5boost10shared_ptrIN8QuantLib18YieldTermStructureEEptEv.exit: ; preds = %_ZNK5boost10shared_ptrIN8QuantLib23FittedBondDiscountCurve13FittingMethodEEptEv.exit, %cond.false.i3
  %3 = phi ptr [ %2, %_ZNK5boost10shared_ptrIN8QuantLib23FittedBondDiscountCurve13FittingMethodEEptEv.exit ], [ %.pre.i4, %cond.false.i3 ]
  %call5 = tail call noundef double @_ZNK8QuantLib18YieldTermStructure8discountEdb(ptr noundef nonnull align 8 dereferenceable(152) %3, double noundef %t, i1 noundef zeroext true)
  %mul = fmul double %call2, %call5
  %rebase_ = getelementptr inbounds nuw i8, ptr %this, i64 192
  %4 = load double, ptr %rebase_, align 8, !tbaa !102
  %div = fdiv double %mul, %4
  ret double %div
}